target datalayout = "e-m:e-p270:32:32-p271:32:32-p272:64:64-i64:64-i128:128-f80:128-n8:16:32:64-S128"
target triple = "x86_64-pc-linux-gnu"

%"class.pxrInternal_v0_24__pxrReserved__::WorkDispatcher" = type <{ %"class.tbb::detail::d1::task_group_context", %"class.pxrInternal_v0_24__pxrReserved__::WorkDispatcher::_TaskGroup", %"class.tbb::detail::d1::concurrent_vector", %"struct.std::atomic_flag", [7 x i8] }>
%"class.tbb::detail::d1::task_group_context" = type { i64, %"struct.std::atomic", i8, %"struct.tbb::detail::d1::task_group_context::context_traits", %"struct.std::atomic.0", %"struct.std::atomic.2", %union.anon, ptr, %"struct.tbb::detail::d1::intrusive_list_node", %"struct.std::atomic.3", ptr, i64, [56 x i8] }
%"struct.std::atomic" = type { %"struct.std::__atomic_base" }
%"struct.std::__atomic_base" = type { i32 }
%"struct.tbb::detail::d1::task_group_context::context_traits" = type { i8 }
%"struct.std::atomic.0" = type { %"struct.std::__atomic_base.1" }
%"struct.std::__atomic_base.1" = type { i8 }
%"struct.std::atomic.2" = type { i8 }
%union.anon = type { ptr }
%"struct.tbb::detail::d1::intrusive_list_node" = type { ptr, ptr }
%"struct.std::atomic.3" = type { %"struct.std::__atomic_base.4" }
%"struct.std::__atomic_base.4" = type { ptr }
%"class.pxrInternal_v0_24__pxrReserved__::WorkDispatcher::_TaskGroup" = type { %"class.tbb::detail::d1::task_group" }
%"class.tbb::detail::d1::task_group" = type { %"class.tbb::detail::d1::task_group_base" }
%"class.tbb::detail::d1::task_group_base" = type { %"class.tbb::detail::d1::wait_context", %"class.tbb::detail::d1::task_group_context" }
%"class.tbb::detail::d1::wait_context" = type { i64, %"struct.std::atomic.5" }
%"struct.std::atomic.5" = type { %"struct.std::__atomic_base.6" }
%"struct.std::__atomic_base.6" = type { i64 }
%"class.tbb::detail::d1::concurrent_vector" = type { %"class.tbb::detail::d1::segment_table.base", [7 x i8] }
%"class.tbb::detail::d1::segment_table.base" = type <{ ptr, [8 x i8], %"struct.std::atomic.7", [3 x %"struct.std::atomic.9"], %"struct.std::atomic.5", %"struct.std::atomic.5", %"struct.std::atomic.11" }>
%"struct.std::atomic.7" = type { %"struct.std::__atomic_base.8" }
%"struct.std::__atomic_base.8" = type { ptr }
%"struct.std::atomic.9" = type { %"struct.std::__atomic_base.10" }
%"struct.std::__atomic_base.10" = type { ptr }
%"struct.std::atomic.11" = type { %"struct.std::__atomic_base.12" }
%"struct.std::__atomic_base.12" = type { i8 }
%"struct.std::atomic_flag" = type { %"struct.std::__atomic_flag_base" }
%"struct.std::__atomic_flag_base" = type { i8 }

; Function Attrs: mustprogress nounwind uwtable
define linkonce_odr noundef zeroext i8 @_ZNKSt6atomicIN3tbb6detail2d118task_group_context5stateEE4loadESt12memory_order(ptr noundef nonnull align 1 dereferenceable(1) %0, i32 noundef %1) #1 comdat align 2 {
  %3 = alloca ptr, align 8
  %4 = alloca i32, align 4
  %5 = alloca [1 x i8], align 1
  %6 = alloca ptr, align 8
  store ptr %0, ptr %3, align 8
  store i32 %1, ptr %4, align 4
  %7 = load ptr, ptr %3, align 8
  %8 = getelementptr inbounds [1 x i8], ptr %5, i64 0, i64 0
  store ptr %8, ptr %6, align 8
  %9 = getelementptr inbounds nuw %"struct.std::atomic.2", ptr %7, i32 0, i32 0
  %10 = load i32, ptr %4, align 4
  %11 = load ptr, ptr %6, align 8
  switch i32 %10, label %12 [
    i32 1, label %14
    i32 2, label %14
    i32 5, label %16
  ]

12:                                               ; preds = %2
  %13 = load atomic i8, ptr %9 monotonic, align 1
  store i8 %13, ptr %11, align 1
  br label %18

14:                                               ; preds = %2, %2
  %15 = load atomic i8, ptr %9 acquire, align 1
  store i8 %15, ptr %11, align 1
  br label %18

16:                                               ; preds = %2
  %17 = load atomic i8, ptr %9 seq_cst, align 1
  store i8 %17, ptr %11, align 1
  br label %18

18:                                               ; preds = %16, %14, %12
  %19 = load ptr, ptr %6, align 8
  %20 = load i8, ptr %19, align 1
  ret i8 %20
}

; Function Attrs: mustprogress nounwind uwtable
define linkonce_odr noundef zeroext i1 @_ZNK3tbb6detail2d118task_group_context8is_proxyEv(ptr noundef nonnull align 8 dereferenceable(128) %0) #1 comdat align 2 {
  %2 = alloca ptr, align 8
  store ptr %0, ptr %2, align 8
  %3 = load ptr, ptr %2, align 8
  %4 = getelementptr inbounds nuw %"class.tbb::detail::d1::task_group_context", ptr %3, i32 0, i32 5
  %5 = call noundef zeroext i8 @_ZNKSt6atomicIN3tbb6detail2d118task_group_context5stateEE4loadESt12memory_order(ptr noundef nonnull align 1 dereferenceable(1) %4, i32 noundef 0) #13
  %6 = icmp eq i8 %5, -1
  ret i1 %6
}

; Function Attrs: mustprogress uwtable
define linkonce_odr void @_ZN3tbb6detail2d110task_groupD2Ev(ptr noundef nonnull align 8 dereferenceable(144) %0) unnamed_addr #0 comdat align 2 {
  %2 = alloca ptr, align 8
  store ptr %0, ptr %2, align 8
  %3 = load ptr, ptr %2, align 8
  call void @_ZN3tbb6detail2d115task_group_baseD2Ev(ptr noundef nonnull align 8 dereferenceable(144) %3)
  ret void
}

; Function Attrs: mustprogress nounwind uwtable
define linkonce_odr void @_ZN3tbb6detail2d113segment_tableIN32pxrInternal_v0_24__pxrReserved__16TfErrorTransportENS1_23cache_aligned_allocatorIS4_EENS1_17concurrent_vectorIS4_S6_EELm3EED2Ev(ptr noundef nonnull align 8 dereferenceable(65) %0) unnamed_addr #1 comdat align 2 personality ptr @__gxx_personality_v0 {
  %2 = alloca ptr, align 8
  store ptr %0, ptr %2, align 8
  %3 = load ptr, ptr %2, align 8
  invoke void @_ZN3tbb6detail2d113segment_tableIN32pxrInternal_v0_24__pxrReserved__16TfErrorTransportENS1_23cache_aligned_allocatorIS4_EENS1_17concurrent_vectorIS4_S6_EELm3EE5clearEv(ptr noundef nonnull align 8 dereferenceable(65) %3)
          to label %4 unwind label %5

4:                                                ; preds = %1
  ret void

5:                                                ; preds = %1
  %6 = landingpad { ptr, i32 }
          catch ptr null
  %7 = extractvalue { ptr, i32 } %6, 0
  call void @__clang_call_terminate(ptr %7) #14
  unreachable
}

; Function Attrs: mustprogress nounwind uwtable
define linkonce_odr void @_ZN3tbb6detail2d118task_group_contextD2Ev(ptr noundef nonnull align 8 dereferenceable(128) %0) unnamed_addr #1 comdat align 2 personality ptr @__gxx_personality_v0 {
  %2 = alloca ptr, align 8
  store ptr %0, ptr %2, align 8
  %3 = load ptr, ptr %2, align 8
  %4 = call noundef zeroext i1 @_ZNK3tbb6detail2d118task_group_context8is_proxyEv(ptr noundef nonnull align 8 dereferenceable(128) %3)
  br i1 %4, label %7, label %5

5:                                                ; preds = %1
  invoke void @_ZN3tbb6detail2r17destroyERNS0_2d118task_group_contextE(ptr noundef nonnull align 8 dereferenceable(128) %3)
          to label %6 unwind label %8

6:                                                ; preds = %5
  br label %7

7:                                                ; preds = %6, %1
  ret void

8:                                                ; preds = %5
  %9 = landingpad { ptr, i32 }
          catch ptr null
  %10 = extractvalue { ptr, i32 } %9, 0
  call void @__clang_call_terminate(ptr %10) #14
  unreachable
}

; Function Attrs: mustprogress uwtable
define linkonce_odr void @_ZN32pxrInternal_v0_24__pxrReserved__14WorkDispatcher10_TaskGroupD2Ev(ptr noundef nonnull align 8 dereferenceable(144) %0) unnamed_addr #0 comdat align 2 {
  %2 = alloca ptr, align 8
  store ptr %0, ptr %2, align 8
  %3 = load ptr, ptr %2, align 8
  call void @_ZN3tbb6detail2d110task_groupD2Ev(ptr noundef nonnull align 8 dereferenceable(144) %3)
  ret void
}

; Function Attrs: mustprogress nounwind uwtable
define linkonce_odr void @_ZN3tbb6detail2d117concurrent_vectorIN32pxrInternal_v0_24__pxrReserved__16TfErrorTransportENS1_23cache_aligned_allocatorIS4_EEED2Ev(ptr noundef nonnull align 8 dereferenceable(65) %0) unnamed_addr #1 comdat align 2 {
  %2 = alloca ptr, align 8
  store ptr %0, ptr %2, align 8
  %3 = load ptr, ptr %2, align 8
  call void @_ZN3tbb6detail2d113segment_tableIN32pxrInternal_v0_24__pxrReserved__16TfErrorTransportENS1_23cache_aligned_allocatorIS4_EENS1_17concurrent_vectorIS4_S6_EELm3EED2Ev(ptr noundef nonnull align 8 dereferenceable(65) %3) #13
  ret void
}

; Function Attrs: mustprogress nounwind uwtable
define void @_ZN32pxrInternal_v0_24__pxrReserved__14WorkDispatcherD2Ev(ptr noundef nonnull align 8 dereferenceable(345) %0) unnamed_addr #1 align 2 personality ptr @__gxx_personality_v0 {
  %2 = alloca ptr, align 8
  store ptr %0, ptr %2, align 8
  %3 = load ptr, ptr %2, align 8
  invoke void @_ZN32pxrInternal_v0_24__pxrReserved__14WorkDispatcher4WaitEv(ptr noundef nonnull align 8 dereferenceable(345) %3)
          to label %4 unwind label %9

4:                                                ; preds = %1
  %5 = getelementptr inbounds nuw %"class.pxrInternal_v0_24__pxrReserved__::WorkDispatcher", ptr %3, i32 0, i32 2
  call void @_ZN3tbb6detail2d117concurrent_vectorIN32pxrInternal_v0_24__pxrReserved__16TfErrorTransportENS1_23cache_aligned_allocatorIS4_EEED2Ev(ptr noundef nonnull align 8 dereferenceable(65) %5) #13
  %6 = getelementptr inbounds nuw %"class.pxrInternal_v0_24__pxrReserved__::WorkDispatcher", ptr %3, i32 0, i32 1
  invoke void @_ZN32pxrInternal_v0_24__pxrReserved__14WorkDispatcher10_TaskGroupD2Ev(ptr noundef nonnull align 8 dereferenceable(144) %6)
          to label %7 unwind label %9

7:                                                ; preds = %4
  %8 = getelementptr inbounds nuw %"class.pxrInternal_v0_24__pxrReserved__::WorkDispatcher", ptr %3, i32 0, i32 0
  call void @_ZN3tbb6detail2d118task_group_contextD2Ev(ptr noundef nonnull align 8 dereferenceable(128) %8) #13
  ret void

9:                                                ; preds = %4, %1
  %10 = landingpad { ptr, i32 }
          catch ptr null
  %11 = extractvalue { ptr, i32 } %10, 0
  call void @__clang_call_terminate(ptr %11) #14
  unreachable
}