; Function Attrs: mustprogress nounwind uwtable
define void @_ZN32pxrInternal_v0_24__pxrReserved__14WorkDispatcherD2Ev(ptr noundef nonnull align 8 dereferenceable(345) %0) unnamed_addr #3 align 2 personality ptr @__gxx_personality_v0 {
  invoke void @_ZN32pxrInternal_v0_24__pxrReserved__14WorkDispatcher4WaitEv(ptr noundef nonnull align 8 dereferenceable(345) %0)
          to label %2 unwind label %15

2:                                                ; preds = %1
  %3 = getelementptr inbounds nuw i8, ptr %0, i64 272
  invoke void @_ZN3tbb6detail2d113segment_tableIN32pxrInternal_v0_24__pxrReserved__16TfErrorTransportENS1_23cache_aligned_allocatorIS4_EENS1_17concurrent_vectorIS4_S6_EELm3EE5clearEv(ptr noundef nonnull align 8 dereferenceable(65) %3)
          to label %_ZN3tbb6detail2d117concurrent_vectorIN32pxrInternal_v0_24__pxrReserved__16TfErrorTransportENS1_23cache_aligned_allocatorIS4_EEED2Ev.exit unwind label %4

4:                                                ; preds = %2
  %5 = landingpad { ptr, i32 }
          catch ptr null
  %6 = extractvalue { ptr, i32 } %5, 0
  tail call void @__clang_call_terminate(ptr %6) #14
  unreachable

_ZN3tbb6detail2d117concurrent_vectorIN32pxrInternal_v0_24__pxrReserved__16TfErrorTransportENS1_23cache_aligned_allocatorIS4_EEED2Ev.exit: ; preds = %2
  %7 = getelementptr inbounds nuw i8, ptr %0, i64 128
  invoke void @_ZN3tbb6detail2d115task_group_baseD2Ev(ptr noundef nonnull align 8 dereferenceable(144) %7)
          to label %_ZN32pxrInternal_v0_24__pxrReserved__14WorkDispatcher10_TaskGroupD2Ev.exit unwind label %15

_ZN32pxrInternal_v0_24__pxrReserved__14WorkDispatcher10_TaskGroupD2Ev.exit: ; preds = %_ZN3tbb6detail2d117concurrent_vectorIN32pxrInternal_v0_24__pxrReserved__16TfErrorTransportENS1_23cache_aligned_allocatorIS4_EEED2Ev.exit
  %8 = getelementptr inbounds nuw i8, ptr %0, i64 15
  %9 = load atomic i8, ptr %8 monotonic, align 1
  %10 = icmp eq i8 %9, -1
  br i1 %10, label %_ZN3tbb6detail2d118task_group_contextD2Ev.exit, label %11

11:                                               ; preds = %_ZN32pxrInternal_v0_24__pxrReserved__14WorkDispatcher10_TaskGroupD2Ev.exit
  invoke void @_ZN3tbb6detail2r17destroyERNS0_2d118task_group_contextE(ptr noundef nonnull align 8 dereferenceable(128) %0)
          to label %_ZN3tbb6detail2d118task_group_contextD2Ev.exit unwind label %12

12:                                               ; preds = %11
  %13 = landingpad { ptr, i32 }
          catch ptr null
  %14 = extractvalue { ptr, i32 } %13, 0
  tail call void @__clang_call_terminate(ptr %14) #14
  unreachable

_ZN3tbb6detail2d118task_group_contextD2Ev.exit:   ; preds = %_ZN32pxrInternal_v0_24__pxrReserved__14WorkDispatcher10_TaskGroupD2Ev.exit, %11
  ret void

15:                                               ; preds = %_ZN3tbb6detail2d117concurrent_vectorIN32pxrInternal_v0_24__pxrReserved__16TfErrorTransportENS1_23cache_aligned_allocatorIS4_EEED2Ev.exit, %1
  %16 = landingpad { ptr, i32 }
          catch ptr null
  %17 = extractvalue { ptr, i32 } %16, 0
  tail call void @__clang_call_terminate(ptr %17) #14
  unreachable
}